; ModuleID = '50/2648.c'
source_filename = "50/2648.c"
target datalayout = "e-m:e-p270:32:32-p271:32:32-p272:64:64-i64:64-f80:128-n8:16:32:64-S128"
target triple = "x86_64-pc-linux-gnu"

@.str = private unnamed_addr constant [3 x i8] c"%d\00", align 1
@__const.main.a = private unnamed_addr constant [11 x i32] [i32 31, i32 28, i32 31, i32 30, i32 31, i32 30, i32 31, i32 31, i32 30, i32 31, i32 30], align 16
@.str.1 = private unnamed_addr constant [3 x i8] c"1\0A\00", align 1
@.str.2 = private unnamed_addr constant [4 x i8] c"%d\0A\00", align 1

; Function Attrs: noinline nounwind uwtable
define dso_local i32 @main() #0 {
  %1 = alloca i32, align 4
  %2 = alloca i32, align 4
  %3 = alloca i32, align 4
  %4 = alloca [11 x i32], align 16
  %5 = alloca [12 x i32], align 16
  store i32 0, i32* %1, align 4
  %6 = call i32 (i8*, ...) @__isoc99_scanf(i8* getelementptr inbounds ([3 x i8], [3 x i8]* @.str, i64 0, i64 0), i32* %2)
  %7 = bitcast [11 x i32]* %4 to i8*
  call void @llvm.memcpy.p0i8.p0i8.i64(i8* align 16 %7, i8* align 16 bitcast ([11 x i32]* @__const.main.a to i8*), i64 44, i1 false)
  %8 = load i32, i32* %2, align 4
  %9 = add nsw i32 %8, 12
  %10 = getelementptr inbounds [12 x i32], [12 x i32]* %5, i64 0, i64 0
  store i32 %9, i32* %10, align 16
  %11 = getelementptr inbounds [12 x i32], [12 x i32]* %5, i64 0, i64 0
  %12 = load i32, i32* %11, align 16
  %13 = srem i32 %12, 7
  %14 = icmp eq i32 %13, 5
  br i1 %14, label %15, label %17

15:                                               ; preds = %0
  %16 = call i32 (i8*, ...) @printf(i8* getelementptr inbounds ([3 x i8], [3 x i8]* @.str.1, i64 0, i64 0))
  br label %17

17:                                               ; preds = %15, %0
  store i32 1, i32* %3, align 4
  br label %18

18:                                               ; preds = %47, %17
  %19 = load i32, i32* %3, align 4
  %20 = icmp slt i32 %19, 12
  br i1 %20, label %21, label %50

21:                                               ; preds = %18
  %22 = load i32, i32* %3, align 4
  %23 = sub nsw i32 %22, 1
  %24 = sext i32 %23 to i64
  %25 = getelementptr inbounds [12 x i32], [12 x i32]* %5, i64 0, i64 %24
  %26 = load i32, i32* %25, align 4
  %27 = load i32, i32* %3, align 4
  %28 = sub nsw i32 %27, 1
  %29 = sext i32 %28 to i64
  %30 = getelementptr inbounds [11 x i32], [11 x i32]* %4, i64 0, i64 %29
  %31 = load i32, i32* %30, align 4
  %32 = add nsw i32 %26, %31
  %33 = load i32, i32* %3, align 4
  %34 = sext i32 %33 to i64
  %35 = getelementptr inbounds [12 x i32], [12 x i32]* %5, i64 0, i64 %34
  store i32 %32, i32* %35, align 4
  %36 = load i32, i32* %3, align 4
  %37 = sext i32 %36 to i64
  %38 = getelementptr inbounds [12 x i32], [12 x i32]* %5, i64 0, i64 %37
  %39 = load i32, i32* %38, align 4
  %40 = srem i32 %39, 7
  %41 = icmp eq i32 %40, 5
  br i1 %41, label %42, label %46

42:                                               ; preds = %21
  %43 = load i32, i32* %3, align 4
  %44 = add nsw i32 %43, 1
  %45 = call i32 (i8*, ...) @printf(i8* getelementptr inbounds ([4 x i8], [4 x i8]* @.str.2, i64 0, i64 0), i32 %44)
  br label %46

46:                                               ; preds = %42, %21
  br label %47

47:                                               ; preds = %46
  %48 = load i32, i32* %3, align 4
  %49 = add nsw i32 %48, 1
  store i32 %49, i32* %3, align 4
  br label %18

50:                                               ; preds = %18
  %51 = load i32, i32* %1, align 4
  ret i32 %51
}

declare dso_local i32 @__isoc99_scanf(i8*, ...) #1

; Function Attrs: argmemonly nounwind willreturn
declare void @llvm.memcpy.p0i8.p0i8.i64(i8* noalias nocapture writeonly, i8* noalias nocapture readonly, i64, i1 immarg) #2

declare dso_local i32 @printf(i8*, ...) #1


!llvm.module.flags = !{!0}
!llvm.ident = !{!1}

!0 = !{i32 1, !"wchar_size", i32 4}
!1 = !{!"clang version 10.0.0-4ubuntu1 "}
